target datalayout = "e-m:e-p270:32:32-p271:32:32-p272:64:64-i64:64-i128:128-f80:128-n8:16:32:64-S128"
target triple = "x86_64-pc-linux-gnu"

%class.AbsSeq = type { ptr, i32, double, double, double, double, double }

; Function Attrs: mustprogress nounwind uwtable
define hidden noundef double @_ZNK6AbsSeq3avgEv(ptr noundef nonnull align 8 dereferenceable(56) %0) #1 align 2 {
  %2 = alloca double, align 8
  %3 = alloca ptr, align 8
  store ptr %0, ptr %3, align 8
  %4 = load ptr, ptr %3, align 8
  %5 = getelementptr inbounds %class.AbsSeq, ptr %4, i32 0, i32 1
  %6 = load i32, ptr %5, align 8
  %7 = icmp eq i32 %6, 0
  br i1 %7, label %8, label %9

8:                                                ; preds = %1
  store double 0.000000e+00, ptr %2, align 8
  br label %17

9:                                                ; preds = %1
  %10 = getelementptr inbounds %class.AbsSeq, ptr %4, i32 0, i32 2
  %11 = load double, ptr %10, align 8
  %12 = load ptr, ptr %4, align 8
  %13 = getelementptr inbounds ptr, ptr %12, i64 0
  %14 = load ptr, ptr %13, align 8
  %15 = call noundef double %14(ptr noundef nonnull align 8 dereferenceable(56) %4)
  %16 = fdiv double %11, %15
  store double %16, ptr %2, align 8
  br label %17

17:                                               ; preds = %9, %8
  %18 = load double, ptr %2, align 8
  ret double %18
}