; Function Attrs: mustprogress nounwind uwtable
define hidden noundef double @_ZNK6AbsSeq3avgEv(ptr noundef nonnull align 8 dereferenceable(56) %0) local_unnamed_addr #3 align 2 {
  %2 = getelementptr inbounds i8, ptr %0, i64 8
  %3 = load i32, ptr %2, align 8
  %4 = icmp eq i32 %3, 0
  br i1 %4, label %12, label %5

5:                                                ; preds = %1
  %6 = getelementptr inbounds i8, ptr %0, i64 16
  %7 = load double, ptr %6, align 8
  %8 = load ptr, ptr %0, align 8
  %9 = load ptr, ptr %8, align 8
  %10 = tail call noundef double %9(ptr noundef nonnull align 8 dereferenceable(56) %0) #12
  %11 = fdiv double %7, %10
  br label %12

12:                                               ; preds = %1, %5
  %.0 = phi double [ %11, %5 ], [ 0.000000e+00, %1 ]
  ret double %.0
}